target datalayout = "e-m:e-p270:32:32-p271:32:32-p272:64:64-i64:64-i128:128-f80:128-n8:16:32:64-S128"
target triple = "x86_64-pc-linux-gnu"

@hf_mpls_pm_version = internal global i32 0, align 4
@hf_mpls_pm_flags = internal global i32 0, align 4
@hf_mpls_pm_flags_r = internal global i32 0, align 4
@hf_mpls_pm_flags_t = internal global i32 0, align 4
@hf_mpls_pm_flags_res = internal global i32 0, align 4
@hf_mpls_pm_query_ctrl_code = internal global i32 0, align 4
@hf_mpls_pm_response_ctrl_code = internal global i32 0, align 4
@hf_mpls_pm_length = internal global i32 0, align 4
@hf_mpls_pm_session_id = internal global i32 0, align 4
@hf_mpls_pm_ds = internal global i32 0, align 4
@hf_mpls_pm_qtf = internal global i32 0, align 4
@hf_mpls_pm_rtf = internal global i32 0, align 4
@hf_mpls_pm_rptf = internal global i32 0, align 4
@ett_mpls_pm = internal global i32 0, align 4
@ett_mpls_pm_flags = internal global i32 0, align 4
@proto_mpls_pm_dm = internal global i32 0, align 4
@.str.128 = private unnamed_addr constant [3 x i8] c"DM\00", align 1

; Function Attrs: null_pointer_is_valid sspstrong uwtable
define internal i32 @dissect_mpls_pm_delay(ptr noundef %0, ptr noundef %1, ptr noundef %2, ptr noundef %3) #0 {
  %5 = alloca ptr, align 8
  %6 = alloca ptr, align 8
  %7 = alloca ptr, align 8
  %8 = alloca ptr, align 8
  %9 = alloca ptr, align 8
  %10 = alloca ptr, align 8
  %11 = alloca ptr, align 8
  %12 = alloca i32, align 4
  %13 = alloca i8, align 1
  %14 = alloca i8, align 1
  %15 = alloca i8, align 1
  %16 = alloca i32, align 4
  %17 = alloca i8, align 1
  %18 = alloca i8, align 1
  %19 = alloca i8, align 1
  %20 = alloca i8, align 1
  store ptr %0, ptr %5, align 8
  store ptr %1, ptr %6, align 8
  store ptr %2, ptr %7, align 8
  store ptr %3, ptr %8, align 8
  call void @llvm.lifetime.start.p0(i64 8, ptr %9) #3
  call void @llvm.lifetime.start.p0(i64 8, ptr %10) #3
  call void @llvm.lifetime.start.p0(i64 8, ptr %11) #3
  call void @llvm.lifetime.start.p0(i64 4, ptr %12) #3
  store i32 0, ptr %12, align 4
  call void @llvm.lifetime.start.p0(i64 1, ptr %13) #3
  store i8 0, ptr %13, align 1
  call void @llvm.lifetime.start.p0(i64 1, ptr %14) #3
  store i8 0, ptr %14, align 1
  call void @llvm.lifetime.start.p0(i64 1, ptr %15) #3
  store i8 0, ptr %15, align 1
  call void @llvm.lifetime.start.p0(i64 4, ptr %16) #3
  store i32 0, ptr %16, align 4
  call void @llvm.lifetime.start.p0(i64 1, ptr %17) #3
  store i8 0, ptr %17, align 1
  call void @llvm.lifetime.start.p0(i64 1, ptr %18) #3
  call void @llvm.lifetime.start.p0(i64 1, ptr %19) #3
  call void @llvm.lifetime.start.p0(i64 1, ptr %20) #3
  %21 = load ptr, ptr %5, align 8
  %22 = load ptr, ptr %6, align 8
  call void @mpls_pm_build_cinfo(ptr noundef %21, ptr noundef %22, ptr noundef @.str.128, ptr noundef %13, ptr noundef %14, ptr noundef %15, ptr noundef %16, ptr noundef %17)
  %23 = load ptr, ptr %7, align 8
  %24 = load i32, ptr @proto_mpls_pm_dm, align 4
  %25 = load ptr, ptr %5, align 8
  %26 = call ptr @proto_tree_add_item(ptr noundef %23, i32 noundef %24, ptr noundef %25, i32 noundef 0, i32 noundef -1, i32 noundef 0)
  store ptr %26, ptr %9, align 8
  %27 = load ptr, ptr %9, align 8
  %28 = load i32, ptr @ett_mpls_pm, align 4
  %29 = call ptr @proto_item_add_subtree(ptr noundef %27, i32 noundef %28)
  store ptr %29, ptr %10, align 8
  %30 = load ptr, ptr %10, align 8
  %31 = load i32, ptr @hf_mpls_pm_version, align 4
  %32 = load ptr, ptr %5, align 8
  %33 = load i32, ptr %12, align 4
  %34 = call ptr @proto_tree_add_item(ptr noundef %30, i32 noundef %31, ptr noundef %32, i32 noundef %33, i32 noundef 1, i32 noundef 0)
  %35 = load ptr, ptr %10, align 8
  %36 = load i32, ptr @hf_mpls_pm_flags, align 4
  %37 = load ptr, ptr %5, align 8
  %38 = load i32, ptr %12, align 4
  %39 = call ptr @proto_tree_add_item(ptr noundef %35, i32 noundef %36, ptr noundef %37, i32 noundef %38, i32 noundef 1, i32 noundef 0)
  store ptr %39, ptr %9, align 8
  %40 = load ptr, ptr %9, align 8
  %41 = load i32, ptr @ett_mpls_pm_flags, align 4
  %42 = call ptr @proto_item_add_subtree(ptr noundef %40, i32 noundef %41)
  store ptr %42, ptr %11, align 8
  %43 = load ptr, ptr %11, align 8
  %44 = load i32, ptr @hf_mpls_pm_flags_r, align 4
  %45 = load ptr, ptr %5, align 8
  %46 = load i32, ptr %12, align 4
  %47 = call ptr @proto_tree_add_item(ptr noundef %43, i32 noundef %44, ptr noundef %45, i32 noundef %46, i32 noundef 1, i32 noundef 0)
  %48 = load ptr, ptr %11, align 8
  %49 = load i32, ptr @hf_mpls_pm_flags_t, align 4
  %50 = load ptr, ptr %5, align 8
  %51 = load i32, ptr %12, align 4
  %52 = call ptr @proto_tree_add_item(ptr noundef %48, i32 noundef %49, ptr noundef %50, i32 noundef %51, i32 noundef 1, i32 noundef 0)
  %53 = load ptr, ptr %11, align 8
  %54 = load i32, ptr @hf_mpls_pm_flags_res, align 4
  %55 = load ptr, ptr %5, align 8
  %56 = load i32, ptr %12, align 4
  %57 = call ptr @proto_tree_add_item(ptr noundef %53, i32 noundef %54, ptr noundef %55, i32 noundef %56, i32 noundef 1, i32 noundef 0)
  %58 = load i32, ptr %12, align 4
  %59 = add i32 %58, 1
  store i32 %59, ptr %12, align 4
  %60 = load i8, ptr %13, align 1, !range !6, !noundef !7
  %61 = trunc i8 %60 to i1
  br i1 %61, label %62, label %68

62:                                               ; preds = %4
  %63 = load ptr, ptr %10, align 8
  %64 = load i32, ptr @hf_mpls_pm_query_ctrl_code, align 4
  %65 = load ptr, ptr %5, align 8
  %66 = load i32, ptr %12, align 4
  %67 = call ptr @proto_tree_add_item(ptr noundef %63, i32 noundef %64, ptr noundef %65, i32 noundef %66, i32 noundef 1, i32 noundef 0)
  br label %74

68:                                               ; preds = %4
  %69 = load ptr, ptr %10, align 8
  %70 = load i32, ptr @hf_mpls_pm_response_ctrl_code, align 4
  %71 = load ptr, ptr %5, align 8
  %72 = load i32, ptr %12, align 4
  %73 = call ptr @proto_tree_add_item(ptr noundef %69, i32 noundef %70, ptr noundef %71, i32 noundef %72, i32 noundef 1, i32 noundef 0)
  br label %74

74:                                               ; preds = %68, %62
  %75 = load i32, ptr %12, align 4
  %76 = add i32 %75, 1
  store i32 %76, ptr %12, align 4
  %77 = load ptr, ptr %10, align 8
  %78 = load i32, ptr @hf_mpls_pm_length, align 4
  %79 = load ptr, ptr %5, align 8
  %80 = load i32, ptr %12, align 4
  %81 = call ptr @proto_tree_add_item(ptr noundef %77, i32 noundef %78, ptr noundef %79, i32 noundef %80, i32 noundef 2, i32 noundef 0)
  %82 = load i32, ptr %12, align 4
  %83 = add i32 %82, 2
  store i32 %83, ptr %12, align 4
  %84 = load ptr, ptr %5, align 8
  %85 = load i32, ptr %12, align 4
  %86 = call zeroext i8 @tvb_get_uint8(ptr noundef %84, i32 noundef %85)
  %87 = zext i8 %86 to i32
  %88 = and i32 %87, 240
  %89 = ashr i32 %88, 4
  %90 = trunc i32 %89 to i8
  store i8 %90, ptr %18, align 1
  %91 = load ptr, ptr %10, align 8
  %92 = load i32, ptr @hf_mpls_pm_qtf, align 4
  %93 = load ptr, ptr %5, align 8
  %94 = load i32, ptr %12, align 4
  %95 = call ptr @proto_tree_add_item(ptr noundef %91, i32 noundef %92, ptr noundef %93, i32 noundef %94, i32 noundef 1, i32 noundef 0)
  %96 = load ptr, ptr %5, align 8
  %97 = load i32, ptr %12, align 4
  %98 = call zeroext i8 @tvb_get_uint8(ptr noundef %96, i32 noundef %97)
  %99 = zext i8 %98 to i32
  %100 = and i32 %99, 15
  %101 = trunc i32 %100 to i8
  store i8 %101, ptr %19, align 1
  %102 = load ptr, ptr %10, align 8
  %103 = load i32, ptr @hf_mpls_pm_rtf, align 4
  %104 = load ptr, ptr %5, align 8
  %105 = load i32, ptr %12, align 4
  %106 = call ptr @proto_tree_add_item(ptr noundef %102, i32 noundef %103, ptr noundef %104, i32 noundef %105, i32 noundef 1, i32 noundef 0)
  %107 = load i32, ptr %12, align 4
  %108 = add i32 %107, 1
  store i32 %108, ptr %12, align 4
  %109 = load ptr, ptr %10, align 8
  %110 = load i32, ptr @hf_mpls_pm_rptf, align 4
  %111 = load ptr, ptr %5, align 8
  %112 = load i32, ptr %12, align 4
  %113 = call ptr @proto_tree_add_item(ptr noundef %109, i32 noundef %110, ptr noundef %111, i32 noundef %112, i32 noundef 1, i32 noundef 0)
  %114 = load i32, ptr %12, align 4
  %115 = add i32 %114, 3
  store i32 %115, ptr %12, align 4
  %116 = load ptr, ptr %10, align 8
  %117 = load i32, ptr @hf_mpls_pm_session_id, align 4
  %118 = load ptr, ptr %5, align 8
  %119 = load i32, ptr %12, align 4
  %120 = load i32, ptr %16, align 4
  %121 = call ptr @proto_tree_add_uint(ptr noundef %116, i32 noundef %117, ptr noundef %118, i32 noundef %119, i32 noundef 4, i32 noundef %120)
  %122 = load i8, ptr %15, align 1, !range !6, !noundef !7
  %123 = trunc i8 %122 to i1
  br i1 %123, label %124, label %131

124:                                              ; preds = %74
  %125 = load ptr, ptr %10, align 8
  %126 = load i32, ptr @hf_mpls_pm_ds, align 4
  %127 = load ptr, ptr %5, align 8
  %128 = load i32, ptr %12, align 4
  %129 = add i32 %128, 3
  %130 = call ptr @proto_tree_add_item(ptr noundef %125, i32 noundef %126, ptr noundef %127, i32 noundef %129, i32 noundef 1, i32 noundef 0)
  br label %131

131:                                              ; preds = %124, %74
  %132 = load i32, ptr %12, align 4
  %133 = add i32 %132, 4
  store i32 %133, ptr %12, align 4
  store i8 1, ptr %20, align 1
  br label %134

134:                                              ; preds = %149, %131
  %135 = load i8, ptr %20, align 1
  %136 = zext i8 %135 to i32
  %137 = icmp sle i32 %136, 4
  br i1 %137, label %138, label %152

138:                                              ; preds = %134
  %139 = load ptr, ptr %5, align 8
  %140 = load ptr, ptr %10, align 8
  %141 = load i32, ptr %12, align 4
  %142 = load i8, ptr %18, align 1
  %143 = load i8, ptr %19, align 1
  %144 = load i8, ptr %13, align 1, !range !6, !noundef !7
  %145 = trunc i8 %144 to i1
  %146 = load i8, ptr %20, align 1
  call void @mpls_pm_dissect_timestamp(ptr noundef %139, ptr noundef %140, i32 noundef %141, i8 noundef zeroext %142, i8 noundef zeroext %143, i1 noundef zeroext %145, i8 noundef zeroext %146)
  %147 = load i32, ptr %12, align 4
  %148 = add i32 %147, 8
  store i32 %148, ptr %12, align 4
  br label %149

149:                                              ; preds = %138
  %150 = load i8, ptr %20, align 1
  %151 = add i8 %150, 1
  store i8 %151, ptr %20, align 1
  br label %134, !llvm.loop !8

152:                                              ; preds = %134
  %153 = load ptr, ptr %5, align 8
  %154 = call i32 @tvb_captured_length(ptr noundef %153)
  call void @llvm.lifetime.end.p0(i64 1, ptr %20) #3
  call void @llvm.lifetime.end.p0(i64 1, ptr %19) #3
  call void @llvm.lifetime.end.p0(i64 1, ptr %18) #3
  call void @llvm.lifetime.end.p0(i64 1, ptr %17) #3
  call void @llvm.lifetime.end.p0(i64 4, ptr %16) #3
  call void @llvm.lifetime.end.p0(i64 1, ptr %15) #3
  call void @llvm.lifetime.end.p0(i64 1, ptr %14) #3
  call void @llvm.lifetime.end.p0(i64 1, ptr %13) #3
  call void @llvm.lifetime.end.p0(i64 4, ptr %12) #3
  call void @llvm.lifetime.end.p0(i64 8, ptr %11) #3
  call void @llvm.lifetime.end.p0(i64 8, ptr %10) #3
  call void @llvm.lifetime.end.p0(i64 8, ptr %9) #3
  ret i32 %154
}