; Function Attrs: null_pointer_is_valid sspstrong uwtable
define internal i32 @dissect_mpls_pm_delay(ptr noundef %0, ptr noundef readonly captures(none) %1, ptr noundef %2, ptr readnone captures(none) %3) #0 {
  %5 = alloca i8, align 1
  %6 = alloca i8, align 1
  %7 = alloca i8, align 1
  %8 = alloca i32, align 4
  %9 = alloca i8, align 1
  call void @llvm.lifetime.start.p0(i64 1, ptr nonnull %5) #3
  call void @llvm.lifetime.start.p0(i64 1, ptr nonnull %6) #3
  call void @llvm.lifetime.start.p0(i64 1, ptr nonnull %7) #3
  call void @llvm.lifetime.start.p0(i64 4, ptr nonnull %8) #3
  call void @llvm.lifetime.start.p0(i64 1, ptr nonnull %9) #3
  call fastcc void @mpls_pm_build_cinfo(ptr noundef %0, ptr noundef %1, ptr noundef nonnull @.str.128, ptr noundef nonnull %5, ptr noundef nonnull %6, ptr noundef nonnull %7, ptr noundef nonnull %8, ptr noundef nonnull %9)
  %10 = load i32, ptr @proto_mpls_pm_dm, align 4
  %11 = tail call ptr @proto_tree_add_item(ptr noundef %2, i32 noundef %10, ptr noundef %0, i32 noundef 0, i32 noundef -1, i32 noundef 0)
  %12 = load i32, ptr @ett_mpls_pm, align 4
  %13 = tail call ptr @proto_item_add_subtree(ptr noundef %11, i32 noundef %12)
  %14 = load i32, ptr @hf_mpls_pm_version, align 4
  %15 = tail call ptr @proto_tree_add_item(ptr noundef %13, i32 noundef %14, ptr noundef %0, i32 noundef 0, i32 noundef 1, i32 noundef 0)
  %16 = load i32, ptr @hf_mpls_pm_flags, align 4
  %17 = tail call ptr @proto_tree_add_item(ptr noundef %13, i32 noundef %16, ptr noundef %0, i32 noundef 0, i32 noundef 1, i32 noundef 0)
  %18 = load i32, ptr @ett_mpls_pm_flags, align 4
  %19 = tail call ptr @proto_item_add_subtree(ptr noundef %17, i32 noundef %18)
  %20 = load i32, ptr @hf_mpls_pm_flags_r, align 4
  %21 = tail call ptr @proto_tree_add_item(ptr noundef %19, i32 noundef %20, ptr noundef %0, i32 noundef 0, i32 noundef 1, i32 noundef 0)
  %22 = load i32, ptr @hf_mpls_pm_flags_t, align 4
  %23 = tail call ptr @proto_tree_add_item(ptr noundef %19, i32 noundef %22, ptr noundef %0, i32 noundef 0, i32 noundef 1, i32 noundef 0)
  %24 = load i32, ptr @hf_mpls_pm_flags_res, align 4
  %25 = tail call ptr @proto_tree_add_item(ptr noundef %19, i32 noundef %24, ptr noundef %0, i32 noundef 0, i32 noundef 1, i32 noundef 0)
  %26 = load i8, ptr %5, align 1, !range !6, !noundef !7
  %27 = trunc nuw i8 %26 to i1
  %hf_mpls_pm_query_ctrl_code.val = load i32, ptr @hf_mpls_pm_query_ctrl_code, align 4
  %hf_mpls_pm_response_ctrl_code.val = load i32, ptr @hf_mpls_pm_response_ctrl_code, align 4
  %28 = select i1 %27, i32 %hf_mpls_pm_query_ctrl_code.val, i32 %hf_mpls_pm_response_ctrl_code.val
  %29 = tail call ptr @proto_tree_add_item(ptr noundef %13, i32 noundef %28, ptr noundef %0, i32 noundef 1, i32 noundef 1, i32 noundef 0)
  %30 = load i32, ptr @hf_mpls_pm_length, align 4
  %31 = tail call ptr @proto_tree_add_item(ptr noundef %13, i32 noundef %30, ptr noundef %0, i32 noundef 2, i32 noundef 2, i32 noundef 0)
  %32 = tail call zeroext i8 @tvb_get_uint8(ptr noundef %0, i32 noundef 4)
  %33 = lshr i8 %32, 4
  %34 = load i32, ptr @hf_mpls_pm_qtf, align 4
  %35 = tail call ptr @proto_tree_add_item(ptr noundef %13, i32 noundef %34, ptr noundef %0, i32 noundef 4, i32 noundef 1, i32 noundef 0)
  %36 = tail call zeroext i8 @tvb_get_uint8(ptr noundef %0, i32 noundef 4)
  %37 = and i8 %36, 15
  %38 = load i32, ptr @hf_mpls_pm_rtf, align 4
  %39 = tail call ptr @proto_tree_add_item(ptr noundef %13, i32 noundef %38, ptr noundef %0, i32 noundef 4, i32 noundef 1, i32 noundef 0)
  %40 = load i32, ptr @hf_mpls_pm_rptf, align 4
  %41 = tail call ptr @proto_tree_add_item(ptr noundef %13, i32 noundef %40, ptr noundef %0, i32 noundef 5, i32 noundef 1, i32 noundef 0)
  %42 = load i32, ptr @hf_mpls_pm_session_id, align 4
  %43 = load i32, ptr %8, align 4
  %44 = tail call ptr @proto_tree_add_uint(ptr noundef %13, i32 noundef %42, ptr noundef %0, i32 noundef 8, i32 noundef 4, i32 noundef %43)
  %45 = load i8, ptr %7, align 1, !range !6, !noundef !7
  %46 = trunc nuw i8 %45 to i1
  br i1 %46, label %47, label %.preheader

47:                                               ; preds = %4
  %48 = load i32, ptr @hf_mpls_pm_ds, align 4
  %49 = tail call ptr @proto_tree_add_item(ptr noundef %13, i32 noundef %48, ptr noundef %0, i32 noundef 11, i32 noundef 1, i32 noundef 0)
  br label %.preheader

.preheader:                                       ; preds = %47, %4
  br label %50

50:                                               ; preds = %.preheader, %50
  %.066 = phi i8 [ %52, %50 ], [ 1, %.preheader ]
  %.06465 = phi i32 [ %51, %50 ], [ 12, %.preheader ]
  tail call fastcc void @mpls_pm_dissect_timestamp(ptr noundef %0, ptr noundef %13, i32 noundef %.06465, i8 noundef zeroext %33, i8 noundef zeroext %37, i1 noundef zeroext %27, i8 noundef zeroext %.066)
  %51 = add nuw nsw i32 %.06465, 8
  %52 = add nuw nsw i8 %.066, 1
  %exitcond.not = icmp eq i8 %52, 5
  br i1 %exitcond.not, label %53, label %50, !llvm.loop !8

53:                                               ; preds = %50
  %54 = tail call i32 @tvb_captured_length(ptr noundef %0)
  call void @llvm.lifetime.end.p0(i64 1, ptr nonnull %9) #3
  call void @llvm.lifetime.end.p0(i64 4, ptr nonnull %8) #3
  call void @llvm.lifetime.end.p0(i64 1, ptr nonnull %7) #3
  call void @llvm.lifetime.end.p0(i64 1, ptr nonnull %6) #3
  call void @llvm.lifetime.end.p0(i64 1, ptr nonnull %5) #3
  ret i32 %54
}